target datalayout = "e-m:e-p270:32:32-p271:32:32-p272:64:64-i64:64-i128:128-f80:128-n8:16:32:64-S128"
target triple = "x86_64-pc-linux-gnu"

; Function Attrs: nounwind uwtable
define internal void @ITransform_C(ptr noalias noundef %0, ptr noalias noundef %1, ptr noalias noundef %2, i32 noundef %3) #0 {
  %5 = alloca ptr, align 8
  %6 = alloca ptr, align 8
  %7 = alloca ptr, align 8
  %8 = alloca i32, align 4
  store ptr %0, ptr %5, align 8, !tbaa !18
  store ptr %1, ptr %6, align 8, !tbaa !20
  store ptr %2, ptr %7, align 8, !tbaa !18
  store i32 %3, ptr %8, align 4, !tbaa !9
  %9 = load ptr, ptr %5, align 8, !tbaa !18
  %10 = load ptr, ptr %6, align 8, !tbaa !20
  %11 = load ptr, ptr %7, align 8, !tbaa !18
  call void @ITransformOne(ptr noundef %9, ptr noundef %10, ptr noundef %11)
  %12 = load i32, ptr %8, align 4, !tbaa !9
  %13 = icmp ne i32 %12, 0
  br i1 %13, label %14, label %21

14:                                               ; preds = %4
  %15 = load ptr, ptr %5, align 8, !tbaa !18
  %16 = getelementptr inbounds i8, ptr %15, i64 4
  %17 = load ptr, ptr %6, align 8, !tbaa !20
  %18 = getelementptr inbounds i16, ptr %17, i64 16
  %19 = load ptr, ptr %7, align 8, !tbaa !18
  %20 = getelementptr inbounds i8, ptr %19, i64 4
  call void @ITransformOne(ptr noundef %16, ptr noundef %18, ptr noundef %20)
  br label %21

21:                                               ; preds = %14, %4
  ret void
}