; Function Attrs: nofree norecurse nosync nounwind memory(argmem: readwrite) uwtable
define internal void @ITransform_C(ptr noalias noundef readonly captures(none) %0, ptr noalias noundef readonly captures(none) %1, ptr noalias noundef writeonly captures(none) %2, i32 noundef %3) #0 {
  tail call fastcc void @ITransformOne(ptr noundef %0, ptr noundef %1, ptr noundef %2)
  %.not = icmp eq i32 %3, 0
  br i1 %.not, label %9, label %5

5:                                                ; preds = %4
  %6 = getelementptr inbounds nuw i8, ptr %0, i64 4
  %7 = getelementptr inbounds nuw i8, ptr %1, i64 32
  %8 = getelementptr inbounds nuw i8, ptr %2, i64 4
  tail call fastcc void @ITransformOne(ptr noundef nonnull %6, ptr noundef nonnull %7, ptr noundef nonnull %8)
  br label %9

9:                                                ; preds = %5, %4
  ret void
}